; ModuleID = 'source-C-CXX/49/2590.cpp'
source_filename = "source-C-CXX/49/2590.cpp"
target datalayout = "e-m:e-p270:32:32-p271:32:32-p272:64:64-i64:64-f80:128-n8:16:32:64-S128"
target triple = "x86_64-pc-linux-gnu"

%"class.std::ios_base::Init" = type { i8 }
%"class.std::basic_istream" = type { i32 (...)**, i64, %"class.std::basic_ios" }
%"class.std::basic_ios" = type { %"class.std::ios_base", %"class.std::basic_ostream"*, i8, i8, %"class.std::basic_streambuf"*, %"class.std::ctype"*, %"class.std::num_put"*, %"class.std::num_get"* }
%"class.std::ios_base" = type { i32 (...)**, i64, i64, i32, i32, i32, %"struct.std::ios_base::_Callback_list"*, %"struct.std::ios_base::_Words", [8 x %"struct.std::ios_base::_Words"], i32, %"struct.std::ios_base::_Words"*, %"class.std::locale" }
%"struct.std::ios_base::_Callback_list" = type { %"struct.std::ios_base::_Callback_list"*, void (i32, %"class.std::ios_base"*, i32)*, i32, i32 }
%"struct.std::ios_base::_Words" = type { i8*, i64 }
%"class.std::locale" = type { %"class.std::locale::_Impl"* }
%"class.std::locale::_Impl" = type { i32, %"class.std::locale::facet"**, i64, %"class.std::locale::facet"**, i8** }
%"class.std::locale::facet" = type <{ i32 (...)**, i32, [4 x i8] }>
%"class.std::basic_ostream" = type { i32 (...)**, %"class.std::basic_ios" }
%"class.std::basic_streambuf" = type { i32 (...)**, i8*, i8*, i8*, i8*, i8*, i8*, %"class.std::locale" }
%"class.std::ctype" = type <{ %"class.std::locale::facet.base", [4 x i8], %struct.__locale_struct*, i8, [7 x i8], i32*, i32*, i16*, i8, [256 x i8], [256 x i8], i8, [6 x i8] }>
%"class.std::locale::facet.base" = type <{ i32 (...)**, i32 }>
%struct.__locale_struct = type { [13 x %struct.__locale_data*], i16*, i32*, i32*, [13 x i8*] }
%struct.__locale_data = type opaque
%"class.std::num_put" = type { %"class.std::locale::facet.base", [4 x i8] }
%"class.std::num_get" = type { %"class.std::locale::facet.base", [4 x i8] }

@_ZStL8__ioinit = internal global %"class.std::ios_base::Init" zeroinitializer, align 1
@__dso_handle = external hidden global i8
@_ZSt3cin = external global %"class.std::basic_istream", align 8
@__const.main.A = private unnamed_addr constant [13 x i32] [i32 0, i32 31, i32 28, i32 31, i32 30, i32 31, i32 30, i32 31, i32 31, i32 30, i32 31, i32 30, i32 31], align 16
@__const.main.B = private unnamed_addr constant [13 x i32] [i32 0, i32 13, i32 13, i32 13, i32 13, i32 13, i32 13, i32 13, i32 13, i32 13, i32 13, i32 13, i32 13], align 16
@_ZSt4cout = external global %"class.std::basic_ostream", align 8
@llvm.global_ctors = appending global [1 x { i32, void ()*, i8* }] [{ i32, void ()*, i8* } { i32 65535, void ()* @_GLOBAL__sub_I_2590.cpp, i8* null }]

declare void @_ZNSt8ios_base4InitC1Ev(%"class.std::ios_base::Init"* nonnull align 1 dereferenceable(1)) unnamed_addr #0

; Function Attrs: nounwind
declare void @_ZNSt8ios_base4InitD1Ev(%"class.std::ios_base::Init"* nonnull align 1 dereferenceable(1)) unnamed_addr #1

; Function Attrs: nofree nounwind
declare i32 @__cxa_atexit(void (i8*)*, i8*, i8*) local_unnamed_addr #2

; Function Attrs: mustprogress norecurse sspstrong uwtable
define dso_local i32 @main() local_unnamed_addr #3 {
  %1 = alloca i32, align 4
  %2 = alloca [13 x i32], align 16
  %3 = bitcast i32* %1 to i8*
  call void @llvm.lifetime.start.p0i8(i64 4, i8* nonnull %3) #8
  %4 = call nonnull align 8 dereferenceable(16) %"class.std::basic_istream"* @_ZNSirsERi(%"class.std::basic_istream"* nonnull align 8 dereferenceable(16) @_ZSt3cin, i32* nonnull align 4 dereferenceable(4) %1)
  %5 = bitcast [13 x i32]* %2 to i8*
  call void @llvm.lifetime.start.p0i8(i64 52, i8* nonnull %5) #8
  call void @llvm.memcpy.p0i8.p0i8.i64(i8* noundef nonnull align 16 dereferenceable(52) %5, i8* noundef nonnull align 16 dereferenceable(52) bitcast ([13 x i32]* @__const.main.B to i8*), i64 52, i1 false)
  br label %6

6:                                                ; preds = %0, %93
  %7 = phi i64 [ 0, %0 ], [ %96, %93 ]
  %8 = phi i64 [ 1, %0 ], [ %94, %93 ]
  %9 = add i64 %7, 1
  %10 = getelementptr inbounds [13 x i32], [13 x i32]* %2, i64 0, i64 %8
  %11 = load i32, i32* %10, align 4, !tbaa !5
  %12 = and i64 %9, 3
  %13 = icmp ult i64 %7, 3
  br i1 %13, label %17, label %14

14:                                               ; preds = %6
  %15 = and i64 %9, -4
  br label %39

16:                                               ; preds = %93
  call void @llvm.lifetime.end.p0i8(i64 52, i8* nonnull %5) #8
  call void @llvm.lifetime.end.p0i8(i64 4, i8* nonnull %3) #8
  ret i32 0

17:                                               ; preds = %39, %6
  %18 = phi i32 [ undef, %6 ], [ %57, %39 ]
  %19 = phi i64 [ 0, %6 ], [ %58, %39 ]
  %20 = phi i32 [ %11, %6 ], [ %57, %39 ]
  %21 = icmp eq i64 %12, 0
  br i1 %21, label %32, label %22

22:                                               ; preds = %17, %22
  %23 = phi i64 [ %29, %22 ], [ %19, %17 ]
  %24 = phi i32 [ %28, %22 ], [ %20, %17 ]
  %25 = phi i64 [ %30, %22 ], [ %12, %17 ]
  %26 = getelementptr inbounds [13 x i32], [13 x i32]* @__const.main.A, i64 0, i64 %23
  %27 = load i32, i32* %26, align 4, !tbaa !5
  %28 = add nsw i32 %27, %24
  %29 = add nuw nsw i64 %23, 1
  %30 = add i64 %25, -1
  %31 = icmp eq i64 %30, 0
  br i1 %31, label %32, label %22, !llvm.loop !9

32:                                               ; preds = %22, %17
  %33 = phi i32 [ %18, %17 ], [ %28, %22 ]
  store i32 %33, i32* %10, align 4, !tbaa !5
  %34 = load i32, i32* %1, align 4, !tbaa !5
  %35 = add i32 %33, -1
  %36 = add i32 %35, %34
  %37 = srem i32 %36, 7
  %38 = icmp eq i32 %37, 5
  br i1 %38, label %61, label %93

39:                                               ; preds = %39, %14
  %40 = phi i64 [ 0, %14 ], [ %58, %39 ]
  %41 = phi i32 [ %11, %14 ], [ %57, %39 ]
  %42 = phi i64 [ %15, %14 ], [ %59, %39 ]
  %43 = getelementptr inbounds [13 x i32], [13 x i32]* @__const.main.A, i64 0, i64 %40
  %44 = load i32, i32* %43, align 16, !tbaa !5
  %45 = add nsw i32 %44, %41
  %46 = or i64 %40, 1
  %47 = getelementptr inbounds [13 x i32], [13 x i32]* @__const.main.A, i64 0, i64 %46
  %48 = load i32, i32* %47, align 4, !tbaa !5
  %49 = add nsw i32 %48, %45
  %50 = or i64 %40, 2
  %51 = getelementptr inbounds [13 x i32], [13 x i32]* @__const.main.A, i64 0, i64 %50
  %52 = load i32, i32* %51, align 8, !tbaa !5
  %53 = add nsw i32 %52, %49
  %54 = or i64 %40, 3
  %55 = getelementptr inbounds [13 x i32], [13 x i32]* @__const.main.A, i64 0, i64 %54
  %56 = load i32, i32* %55, align 4, !tbaa !5
  %57 = add nsw i32 %56, %53
  %58 = add nuw nsw i64 %40, 4
  %59 = add i64 %42, -4
  %60 = icmp eq i64 %59, 0
  br i1 %60, label %17, label %39, !llvm.loop !11

61:                                               ; preds = %32
  %62 = trunc i64 %8 to i32
  %63 = call nonnull align 8 dereferenceable(8) %"class.std::basic_ostream"* @_ZNSolsEi(%"class.std::basic_ostream"* nonnull align 8 dereferenceable(8) @_ZSt4cout, i32 %62)
  %64 = bitcast %"class.std::basic_ostream"* %63 to i8**
  %65 = load i8*, i8** %64, align 8, !tbaa !13
  %66 = getelementptr i8, i8* %65, i64 -24
  %67 = bitcast i8* %66 to i64*
  %68 = load i64, i64* %67, align 8
  %69 = bitcast %"class.std::basic_ostream"* %63 to i8*
  %70 = add nsw i64 %68, 240
  %71 = getelementptr inbounds i8, i8* %69, i64 %70
  %72 = bitcast i8* %71 to %"class.std::ctype"**
  %73 = load %"class.std::ctype"*, %"class.std::ctype"** %72, align 8, !tbaa !15
  %74 = icmp eq %"class.std::ctype"* %73, null
  br i1 %74, label %75, label %76

75:                                               ; preds = %61
  call void @_ZSt16__throw_bad_castv() #9
  unreachable

76:                                               ; preds = %61
  %77 = getelementptr inbounds %"class.std::ctype", %"class.std::ctype"* %73, i64 0, i32 8
  %78 = load i8, i8* %77, align 8, !tbaa !19
  %79 = icmp eq i8 %78, 0
  br i1 %79, label %83, label %80

80:                                               ; preds = %76
  %81 = getelementptr inbounds %"class.std::ctype", %"class.std::ctype"* %73, i64 0, i32 9, i64 10
  %82 = load i8, i8* %81, align 1, !tbaa !21
  br label %89

83:                                               ; preds = %76
  call void @_ZNKSt5ctypeIcE13_M_widen_initEv(%"class.std::ctype"* nonnull align 8 dereferenceable(570) %73)
  %84 = bitcast %"class.std::ctype"* %73 to i8 (%"class.std::ctype"*, i8)***
  %85 = load i8 (%"class.std::ctype"*, i8)**, i8 (%"class.std::ctype"*, i8)*** %84, align 8, !tbaa !13
  %86 = getelementptr inbounds i8 (%"class.std::ctype"*, i8)*, i8 (%"class.std::ctype"*, i8)** %85, i64 6
  %87 = load i8 (%"class.std::ctype"*, i8)*, i8 (%"class.std::ctype"*, i8)** %86, align 8
  %88 = call signext i8 %87(%"class.std::ctype"* nonnull align 8 dereferenceable(570) %73, i8 signext 10)
  br label %89

89:                                               ; preds = %80, %83
  %90 = phi i8 [ %82, %80 ], [ %88, %83 ]
  %91 = call nonnull align 8 dereferenceable(8) %"class.std::basic_ostream"* @_ZNSo3putEc(%"class.std::basic_ostream"* nonnull align 8 dereferenceable(8) %63, i8 signext %90)
  %92 = call nonnull align 8 dereferenceable(8) %"class.std::basic_ostream"* @_ZNSo5flushEv(%"class.std::basic_ostream"* nonnull align 8 dereferenceable(8) %91)
  br label %93

93:                                               ; preds = %32, %89
  %94 = add nuw nsw i64 %8, 1
  %95 = icmp eq i64 %94, 13
  %96 = add i64 %7, 1
  br i1 %95, label %16, label %6, !llvm.loop !22
}

; Function Attrs: argmemonly mustprogress nofree nosync nounwind willreturn
declare void @llvm.lifetime.start.p0i8(i64 immarg, i8* nocapture) #4

declare nonnull align 8 dereferenceable(16) %"class.std::basic_istream"* @_ZNSirsERi(%"class.std::basic_istream"* nonnull align 8 dereferenceable(16), i32* nonnull align 4 dereferenceable(4)) local_unnamed_addr #0

; Function Attrs: argmemonly mustprogress nofree nounwind willreturn
declare void @llvm.memcpy.p0i8.p0i8.i64(i8* noalias nocapture writeonly, i8* noalias nocapture readonly, i64, i1 immarg) #5

; Function Attrs: argmemonly mustprogress nofree nosync nounwind willreturn
declare void @llvm.lifetime.end.p0i8(i64 immarg, i8* nocapture) #4

declare nonnull align 8 dereferenceable(8) %"class.std::basic_ostream"* @_ZNSolsEi(%"class.std::basic_ostream"* nonnull align 8 dereferenceable(8), i32) local_unnamed_addr #0

declare nonnull align 8 dereferenceable(8) %"class.std::basic_ostream"* @_ZNSo3putEc(%"class.std::basic_ostream"* nonnull align 8 dereferenceable(8), i8 signext) local_unnamed_addr #0

declare nonnull align 8 dereferenceable(8) %"class.std::basic_ostream"* @_ZNSo5flushEv(%"class.std::basic_ostream"* nonnull align 8 dereferenceable(8)) local_unnamed_addr #0

; Function Attrs: noreturn
declare void @_ZSt16__throw_bad_castv() local_unnamed_addr #6

declare void @_ZNKSt5ctypeIcE13_M_widen_initEv(%"class.std::ctype"* nonnull align 8 dereferenceable(570)) local_unnamed_addr #0

; Function Attrs: sspstrong uwtable
define internal void @_GLOBAL__sub_I_2590.cpp() #7 section ".text.startup" {
  tail call void @_ZNSt8ios_base4InitC1Ev(%"class.std::ios_base::Init"* nonnull align 1 dereferenceable(1) @_ZStL8__ioinit)
  %1 = tail call i32 @__cxa_atexit(void (i8*)* bitcast (void (%"class.std::ios_base::Init"*)* @_ZNSt8ios_base4InitD1Ev to void (i8*)*), i8* getelementptr inbounds (%"class.std::ios_base::Init", %"class.std::ios_base::Init"* @_ZStL8__ioinit, i64 0, i32 0), i8* nonnull @__dso_handle) #8
  ret void
}


!llvm.module.flags = !{!0, !1, !2, !3}
!llvm.ident = !{!4}

!0 = !{i32 1, !"wchar_size", i32 4}
!1 = !{i32 7, !"PIC Level", i32 2}
!2 = !{i32 7, !"PIE Level", i32 2}
!3 = !{i32 7, !"uwtable", i32 1}
!4 = !{!"clang version 13.0.0"}
!5 = !{!6, !6, i64 0}
!6 = !{!"int", !7, i64 0}
!7 = !{!"omnipotent char", !8, i64 0}
!8 = !{!"Simple C++ TBAA"}
!9 = distinct !{!9, !10}
!10 = !{!"llvm.loop.unroll.disable"}
!11 = distinct !{!11, !12}
!12 = !{!"llvm.loop.mustprogress"}
!13 = !{!14, !14, i64 0}
!14 = !{!"vtable pointer", !8, i64 0}
!15 = !{!16, !17, i64 240}
!16 = !{!"_ZTSSt9basic_iosIcSt11char_traitsIcEE", !17, i64 216, !7, i64 224, !18, i64 225, !17, i64 232, !17, i64 240, !17, i64 248, !17, i64 256}
!17 = !{!"any pointer", !7, i64 0}
!18 = !{!"bool", !7, i64 0}
!19 = !{!20, !7, i64 56}
!20 = !{!"_ZTSSt5ctypeIcE", !17, i64 16, !18, i64 24, !17, i64 32, !17, i64 40, !17, i64 48, !7, i64 56, !7, i64 57, !7, i64 313, !7, i64 569}
!21 = !{!7, !7, i64 0}
!22 = distinct !{!22, !12}
